target datalayout = "e-m:e-p270:32:32-p271:32:32-p272:64:64-i64:64-i128:128-f80:128-n8:16:32:64-S128"
target triple = "x86_64-pc-linux-gnu"

@ff_rgb24toyv12 = external global ptr, align 8

; Function Attrs: alwaysinline nounwind willreturn memory(none) uwtable
define internal zeroext i16 @av_bswap16(i16 noundef zeroext %0) #7 {
  %2 = alloca i16, align 2
  store i16 %0, ptr %2, align 2, !tbaa !62
  %3 = load i16, ptr %2, align 2, !tbaa !62
  %4 = zext i16 %3 to i32
  %5 = ashr i32 %4, 8
  %6 = load i16, ptr %2, align 2, !tbaa !62
  %7 = zext i16 %6 to i32
  %8 = shl i32 %7, 8
  %9 = or i32 %5, %8
  %10 = trunc i32 %9 to i16
  store i16 %10, ptr %2, align 2, !tbaa !62
  %11 = load i16, ptr %2, align 2, !tbaa !62
  ret i16 %11
}

; Function Attrs: nounwind uwtable
define internal void @bayer_bggr16be_to_yv12_copy(ptr noundef %0, i32 noundef %1, ptr noundef %2, ptr noundef %3, ptr noundef %4, i32 noundef %5, i32 noundef %6, ptr noundef %7) #0 {
  %9 = alloca ptr, align 8
  %10 = alloca i32, align 4
  %11 = alloca ptr, align 8
  %12 = alloca ptr, align 8
  %13 = alloca ptr, align 8
  %14 = alloca i32, align 4
  %15 = alloca i32, align 4
  %16 = alloca ptr, align 8
  %17 = alloca [12 x i8], align 1
  %18 = alloca i32, align 4
  %19 = alloca i32, align 4
  store ptr %0, ptr %9, align 8, !tbaa !4
  store i32 %1, ptr %10, align 4, !tbaa !9
  store ptr %2, ptr %11, align 8, !tbaa !4
  store ptr %3, ptr %12, align 8, !tbaa !4
  store ptr %4, ptr %13, align 8, !tbaa !4
  store i32 %5, ptr %14, align 4, !tbaa !9
  store i32 %6, ptr %15, align 4, !tbaa !9
  store ptr %7, ptr %16, align 8, !tbaa !54
  call void @llvm.lifetime.start.p0(i64 12, ptr %17) #11
  call void @llvm.lifetime.start.p0(i64 4, ptr %18) #11
  store i32 6, ptr %18, align 4, !tbaa !9
  call void @llvm.lifetime.start.p0(i64 4, ptr %19) #11
  store i32 0, ptr %19, align 4, !tbaa !9
  br label %20

20:                                               ; preds = %117, %8
  %21 = load i32, ptr %19, align 4, !tbaa !9
  %22 = load i32, ptr %15, align 4, !tbaa !9
  %23 = icmp slt i32 %21, %22
  br i1 %23, label %24, label %120

24:                                               ; preds = %20
  %25 = load ptr, ptr %9, align 8, !tbaa !4
  %26 = load i32, ptr %10, align 4, !tbaa !9
  %27 = mul nsw i32 1, %26
  %28 = add nsw i32 %27, 2
  %29 = sext i32 %28 to i64
  %30 = getelementptr inbounds i8, ptr %25, i64 %29
  %31 = load i16, ptr %30, align 1, !tbaa !67
  %32 = call zeroext i16 @av_bswap16(i16 noundef zeroext %31) #13
  %33 = zext i16 %32 to i32
  %34 = ashr i32 %33, 8
  %35 = trunc i32 %34 to i8
  %36 = getelementptr inbounds [12 x i8], ptr %17, i64 0, i64 6
  store i8 %35, ptr %36, align 1, !tbaa !67
  %37 = getelementptr inbounds [12 x i8], ptr %17, i64 0, i64 9
  store i8 %35, ptr %37, align 1, !tbaa !67
  %38 = getelementptr inbounds [12 x i8], ptr %17, i64 0, i64 3
  store i8 %35, ptr %38, align 1, !tbaa !67
  %39 = getelementptr inbounds [12 x i8], ptr %17, i64 0, i64 0
  store i8 %35, ptr %39, align 1, !tbaa !67
  %40 = load ptr, ptr %9, align 8, !tbaa !4
  %41 = load i32, ptr %10, align 4, !tbaa !9
  %42 = mul nsw i32 0, %41
  %43 = add nsw i32 %42, 2
  %44 = sext i32 %43 to i64
  %45 = getelementptr inbounds i8, ptr %40, i64 %44
  %46 = load i16, ptr %45, align 1, !tbaa !67
  %47 = call zeroext i16 @av_bswap16(i16 noundef zeroext %46) #13
  %48 = zext i16 %47 to i32
  %49 = ashr i32 %48, 8
  %50 = trunc i32 %49 to i8
  %51 = getelementptr inbounds [12 x i8], ptr %17, i64 0, i64 4
  store i8 %50, ptr %51, align 1, !tbaa !67
  %52 = load ptr, ptr %9, align 8, !tbaa !4
  %53 = load i32, ptr %10, align 4, !tbaa !9
  %54 = mul nsw i32 0, %53
  %55 = add nsw i32 %54, 2
  %56 = sext i32 %55 to i64
  %57 = getelementptr inbounds i8, ptr %52, i64 %56
  %58 = load i16, ptr %57, align 1, !tbaa !67
  %59 = call zeroext i16 @av_bswap16(i16 noundef zeroext %58) #13
  %60 = zext i16 %59 to i32
  %61 = load ptr, ptr %9, align 8, !tbaa !4
  %62 = load i32, ptr %10, align 4, !tbaa !9
  %63 = mul nsw i32 1, %62
  %64 = add nsw i32 %63, 0
  %65 = sext i32 %64 to i64
  %66 = getelementptr inbounds i8, ptr %61, i64 %65
  %67 = load i16, ptr %66, align 1, !tbaa !67
  %68 = call zeroext i16 @av_bswap16(i16 noundef zeroext %67) #13
  %69 = zext i16 %68 to i32
  %70 = add i32 %60, %69
  %71 = lshr i32 %70, 9
  %72 = trunc i32 %71 to i8
  %73 = getelementptr inbounds [12 x i8], ptr %17, i64 0, i64 10
  store i8 %72, ptr %73, align 1, !tbaa !67
  %74 = getelementptr inbounds [12 x i8], ptr %17, i64 0, i64 1
  store i8 %72, ptr %74, align 1, !tbaa !67
  %75 = load ptr, ptr %9, align 8, !tbaa !4
  %76 = load i32, ptr %10, align 4, !tbaa !9
  %77 = mul nsw i32 1, %76
  %78 = add nsw i32 %77, 0
  %79 = sext i32 %78 to i64
  %80 = getelementptr inbounds i8, ptr %75, i64 %79
  %81 = load i16, ptr %80, align 1, !tbaa !67
  %82 = call zeroext i16 @av_bswap16(i16 noundef zeroext %81) #13
  %83 = zext i16 %82 to i32
  %84 = ashr i32 %83, 8
  %85 = trunc i32 %84 to i8
  %86 = getelementptr inbounds [12 x i8], ptr %17, i64 0, i64 7
  store i8 %85, ptr %86, align 1, !tbaa !67
  %87 = load ptr, ptr %9, align 8, !tbaa !4
  %88 = load i32, ptr %10, align 4, !tbaa !9
  %89 = mul nsw i32 0, %88
  %90 = add nsw i32 %89, 0
  %91 = sext i32 %90 to i64
  %92 = getelementptr inbounds i8, ptr %87, i64 %91
  %93 = load i16, ptr %92, align 1, !tbaa !67
  %94 = call zeroext i16 @av_bswap16(i16 noundef zeroext %93) #13
  %95 = zext i16 %94 to i32
  %96 = ashr i32 %95, 8
  %97 = trunc i32 %96 to i8
  %98 = getelementptr inbounds [12 x i8], ptr %17, i64 0, i64 8
  store i8 %97, ptr %98, align 1, !tbaa !67
  %99 = getelementptr inbounds [12 x i8], ptr %17, i64 0, i64 5
  store i8 %97, ptr %99, align 1, !tbaa !67
  %100 = getelementptr inbounds [12 x i8], ptr %17, i64 0, i64 2
  store i8 %97, ptr %100, align 1, !tbaa !67
  %101 = getelementptr inbounds [12 x i8], ptr %17, i64 0, i64 11
  store i8 %97, ptr %101, align 1, !tbaa !67
  %102 = load ptr, ptr @ff_rgb24toyv12, align 8, !tbaa !56
  %103 = getelementptr inbounds [12 x i8], ptr %17, i64 0, i64 0
  %104 = load ptr, ptr %11, align 8, !tbaa !4
  %105 = load ptr, ptr %13, align 8, !tbaa !4
  %106 = load ptr, ptr %12, align 8, !tbaa !4
  %107 = load i32, ptr %14, align 4, !tbaa !9
  %108 = load ptr, ptr %16, align 8, !tbaa !54
  call void %102(ptr noundef %103, ptr noundef %104, ptr noundef %105, ptr noundef %106, i32 noundef 2, i32 noundef 2, i32 noundef %107, i32 noundef 0, i32 noundef 6, ptr noundef %108)
  %109 = load ptr, ptr %9, align 8, !tbaa !4
  %110 = getelementptr inbounds i8, ptr %109, i64 4
  store ptr %110, ptr %9, align 8, !tbaa !4
  %111 = load ptr, ptr %11, align 8, !tbaa !4
  %112 = getelementptr inbounds i8, ptr %111, i64 2
  store ptr %112, ptr %11, align 8, !tbaa !4
  %113 = load ptr, ptr %12, align 8, !tbaa !4
  %114 = getelementptr inbounds nuw i8, ptr %113, i32 1
  store ptr %114, ptr %12, align 8, !tbaa !4
  %115 = load ptr, ptr %13, align 8, !tbaa !4
  %116 = getelementptr inbounds nuw i8, ptr %115, i32 1
  store ptr %116, ptr %13, align 8, !tbaa !4
  br label %117

117:                                              ; preds = %24
  %118 = load i32, ptr %19, align 4, !tbaa !9
  %119 = add nsw i32 %118, 2
  store i32 %119, ptr %19, align 4, !tbaa !9
  br label %20, !llvm.loop !296

120:                                              ; preds = %20
  call void @llvm.lifetime.end.p0(i64 4, ptr %19) #11
  call void @llvm.lifetime.end.p0(i64 4, ptr %18) #11
  call void @llvm.lifetime.end.p0(i64 12, ptr %17) #11
  ret void
}